target datalayout = "e-m:e-p270:32:32-p271:32:32-p272:64:64-i64:64-i128:128-f80:128-n8:16:32:64-S128"
target triple = "x86_64-pc-linux-gnu"

%"class.i18n::phonenumbers::UnicodeText::Repr" = type <{ ptr, i32, i32, i8, i8, [6 x i8] }>

; Function Attrs: mustprogress nounwind uwtable
define dso_local void @_ZN4i18n12phonenumbers11UnicodeText4Repr7PointToEPKci(ptr noundef nonnull align 8 dereferenceable(18) %0, ptr noundef %1, i32 noundef %2) #1 align 2 {
  %4 = alloca ptr, align 8
  %5 = alloca ptr, align 8
  %6 = alloca i32, align 4
  store ptr %0, ptr %4, align 8, !tbaa !18
  store ptr %1, ptr %5, align 8, !tbaa !12
  store i32 %2, ptr %6, align 4, !tbaa !13
  %7 = load ptr, ptr %4, align 8
  %8 = getelementptr inbounds nuw %"class.i18n::phonenumbers::UnicodeText::Repr", ptr %7, i32 0, i32 3
  %9 = load i8, ptr %8, align 8, !tbaa !23, !range !24, !noundef !25
  %10 = trunc i8 %9 to i1
  br i1 %10, label %11, label %21

11:                                               ; preds = %3
  %12 = getelementptr inbounds nuw %"class.i18n::phonenumbers::UnicodeText::Repr", ptr %7, i32 0, i32 0
  %13 = load ptr, ptr %12, align 8, !tbaa !26
  %14 = icmp ne ptr %13, null
  br i1 %14, label %15, label %21

15:                                               ; preds = %11
  %16 = getelementptr inbounds nuw %"class.i18n::phonenumbers::UnicodeText::Repr", ptr %7, i32 0, i32 0
  %17 = load ptr, ptr %16, align 8, !tbaa !26
  %18 = icmp eq ptr %17, null
  br i1 %18, label %20, label %19

19:                                               ; preds = %15
  call void @_ZdaPv(ptr noundef %17) #17
  br label %20

20:                                               ; preds = %19, %15
  br label %21

21:                                               ; preds = %20, %11, %3
  %22 = load ptr, ptr %5, align 8, !tbaa !12
  %23 = getelementptr inbounds nuw %"class.i18n::phonenumbers::UnicodeText::Repr", ptr %7, i32 0, i32 0
  store ptr %22, ptr %23, align 8, !tbaa !26
  %24 = load i32, ptr %6, align 4, !tbaa !13
  %25 = getelementptr inbounds nuw %"class.i18n::phonenumbers::UnicodeText::Repr", ptr %7, i32 0, i32 1
  store i32 %24, ptr %25, align 8, !tbaa !27
  %26 = load i32, ptr %6, align 4, !tbaa !13
  %27 = getelementptr inbounds nuw %"class.i18n::phonenumbers::UnicodeText::Repr", ptr %7, i32 0, i32 2
  store i32 %26, ptr %27, align 4, !tbaa !20
  %28 = getelementptr inbounds nuw %"class.i18n::phonenumbers::UnicodeText::Repr", ptr %7, i32 0, i32 3
  store i8 0, ptr %28, align 8, !tbaa !23
  ret void
}