; Function Attrs: mustprogress nounwind uwtable
define dso_local void @_ZN4i18n12phonenumbers11UnicodeText4Repr7PointToEPKci(ptr noundef nonnull align 8 captures(none) dereferenceable(18) initializes((8, 16)) %0, ptr noundef %1, i32 noundef %2) local_unnamed_addr #6 align 2 {
  %4 = getelementptr inbounds nuw i8, ptr %0, i64 16
  %5 = load i8, ptr %4, align 8, !tbaa !17, !range !18, !noundef !19
  %6 = trunc nuw i8 %5 to i1
  br i1 %6, label %7, label %10

7:                                                ; preds = %3
  %8 = load ptr, ptr %0, align 8, !tbaa !20
  %.not = icmp eq ptr %8, null
  br i1 %.not, label %10, label %9

9:                                                ; preds = %7
  tail call void @_ZdaPv(ptr noundef nonnull %8) #26
  br label %10

10:                                               ; preds = %9, %7, %3
  store ptr %1, ptr %0, align 8, !tbaa !20
  %11 = getelementptr inbounds nuw i8, ptr %0, i64 8
  store i32 %2, ptr %11, align 8, !tbaa !21
  %12 = getelementptr inbounds nuw i8, ptr %0, i64 12
  store i32 %2, ptr %12, align 4, !tbaa !13
  store i8 0, ptr %4, align 8, !tbaa !17
  ret void
}